; Function Attrs: mustprogress uwtable
define internal void @_ZN11opencv_test12_GLOBAL__N_152gtest_BilateralTextureFilterTest_perf_EvalGenerator_Ev(ptr dead_on_unwind noalias writable sret(%"class.testing::internal::ParamGenerator") align 8 %0) #4 {
  %2 = alloca %"class.testing::internal::CartesianProductHolder6", align 8
  call void @llvm.lifetime.start.p0(i64 72, ptr nonnull %2) #27
  %.sroa.03.0.copyload = load i64, ptr @_ZN4perfL5szVGAE, align 8
  %.sroa.02.0.copyload = load i64, ptr @_ZN4perfL5szqHDE, align 8
  %.sroa.01.0.copyload = load i64, ptr @_ZN4perfL6sz720pE, align 8
  %.sroa.0.0.copyload = load i64, ptr @_ZN4perfL5szODDE, align 8
  store i32 2, ptr %2, align 8, !tbaa !34, !alias.scope !36
  %3 = getelementptr inbounds nuw i8, ptr %2, i64 8
  store double 5.000000e-01, ptr %3, align 8, !tbaa !39, !alias.scope !36
  %4 = getelementptr inbounds nuw i8, ptr %2, i64 16
  store double 5.000000e-01, ptr %4, align 8, !tbaa !39, !alias.scope !36
  %5 = getelementptr inbounds nuw i8, ptr %2, i64 24
  store i64 %.sroa.03.0.copyload, ptr %5, align 8, !alias.scope !36
  %6 = getelementptr inbounds nuw i8, ptr %2, i64 32
  store i64 %.sroa.02.0.copyload, ptr %6, align 8, !alias.scope !36
  %7 = getelementptr inbounds nuw i8, ptr %2, i64 40
  store i64 %.sroa.01.0.copyload, ptr %7, align 8, !alias.scope !36
  %8 = getelementptr inbounds nuw i8, ptr %2, i64 48
  store i64 %.sroa.0.0.copyload, ptr %8, align 8, !alias.scope !36
  %9 = getelementptr inbounds nuw i8, ptr %2, i64 56
  store i32 0, ptr %9, align 8, !tbaa !42, !alias.scope !36
  %10 = getelementptr inbounds nuw i8, ptr %2, i64 60
  store i32 5, ptr %10, align 4, !tbaa !44, !alias.scope !36
  %11 = getelementptr inbounds nuw i8, ptr %2, i64 64
  store i32 1, ptr %11, align 8, !tbaa !42, !alias.scope !36
  %12 = getelementptr inbounds nuw i8, ptr %2, i64 68
  store i32 3, ptr %12, align 4, !tbaa !44, !alias.scope !36
  call void @_ZNK7testing8internal23CartesianProductHolder6INS0_11ValueArray1IiEENS2_IdEES4_NS0_11ValueArray4IN2cv5Size_IiEES8_S8_S8_EENS0_11ValueArray2IiiEESB_EcvNS0_14ParamGeneratorISt5tupleIJT_T0_T1_T2_T3_T4_EEEEIiddS8_N4perf7MatTypeEiEEv(ptr dead_on_unwind writable sret(%"class.testing::internal::ParamGenerator") align 8 %0, ptr noundef nonnull align 8 dereferenceable(72) %2)
  call void @llvm.lifetime.end.p0(i64 72, ptr nonnull %2) #27
  ret void
}